; Function Attrs: nounwind uwtable
define internal ptr @interp_exec(ptr readnone captures(none) %0, ptr noundef %1, ptr noundef %2) #0 {
  %4 = alloca ptr, align 8
  %5 = alloca ptr, align 8
  %6 = alloca ptr, align 8
  %7 = alloca i32, align 4
  %8 = alloca ptr, align 8
  call void @llvm.lifetime.start.p0(i64 8, ptr nonnull %4) #7
  call void @llvm.lifetime.start.p0(i64 8, ptr nonnull %5) #7
  call void @llvm.lifetime.start.p0(i64 8, ptr nonnull %6) #7
  store ptr null, ptr %6, align 8, !tbaa !15
  call void @llvm.lifetime.start.p0(i64 4, ptr nonnull %7) #7
  store i32 0, ptr %7, align 4, !tbaa !14
  %9 = call i32 (ptr, ptr, ptr, ptr, ...) @PyArg_ParseTupleAndKeywords(ptr noundef %1, ptr noundef %2, ptr noundef nonnull @.str.51, ptr noundef nonnull @interp_exec.kwlist, ptr noundef nonnull %4, ptr noundef nonnull %5, ptr noundef nonnull %6, ptr noundef nonnull %7) #7
  %.not = icmp eq i32 %9, 0
  br i1 %.not, label %46, label %10

10:                                               ; preds = %3
  %11 = load ptr, ptr %4, align 8, !tbaa !15
  %12 = load i32, ptr %7, align 4, !tbaa !14
  %13 = call fastcc ptr @resolve_interp(ptr noundef %11, i32 noundef %12, i32 noundef 1, ptr noundef nonnull @.str.52)
  %14 = icmp eq ptr %13, null
  br i1 %14, label %46, label %15

15:                                               ; preds = %10
  %16 = load ptr, ptr %5, align 8, !tbaa !15
  %17 = getelementptr i8, ptr %16, i64 8
  %.val = load ptr, ptr %17, align 8, !tbaa !23
  %18 = getelementptr i8, ptr %.val, i64 168
  %.val11 = load i64, ptr %18, align 8, !tbaa !24
  %19 = and i64 %.val11, 268435456
  %.not10 = icmp eq i64 %19, 0
  br i1 %.not10, label %convert_script_arg.exit, label %20

20:                                               ; preds = %15
  %21 = load i32, ptr %16, align 8, !tbaa !11
  %22 = icmp slt i32 %21, 0
  br i1 %22, label %_Py_NewRef.exit.i, label %_Py_NewRef.exit.sink.split.i

_Py_NewRef.exit.sink.split.i:                     ; preds = %20
  %23 = add nuw i32 %21, 1
  store i32 %23, ptr %16, align 8, !tbaa !11
  br label %_Py_NewRef.exit.i

_Py_NewRef.exit.i:                                ; preds = %20, %_Py_NewRef.exit.sink.split.i
  %24 = phi i32 [ %23, %_Py_NewRef.exit.sink.split.i ], [ %21, %20 ]
  %25 = getelementptr i8, ptr %16, i64 16
  %.015.val.i = load i64, ptr %25, align 8, !tbaa !194
  %.not1.i = icmp eq i64 %.015.val.i, 0
  br i1 %.not1.i, label %26, label %convert_script_arg.exit.thread14

convert_script_arg.exit.thread14:                 ; preds = %_Py_NewRef.exit.i
  store ptr %16, ptr %5, align 8, !tbaa !15
  br label %35

26:                                               ; preds = %_Py_NewRef.exit.i
  %.not.i.i = icmp sgt i32 %24, -1
  br i1 %.not.i.i, label %27, label %Py_DECREF.exit.i

27:                                               ; preds = %26
  %28 = add nsw i32 %24, -1
  store i32 %28, ptr %16, align 8, !tbaa !11
  %29 = icmp eq i32 %28, 0
  br i1 %29, label %30, label %Py_DECREF.exit.i

30:                                               ; preds = %27
  call void @_Py_Dealloc(ptr noundef nonnull %16) #7
  br label %Py_DECREF.exit.i

Py_DECREF.exit.i:                                 ; preds = %30, %27, %26
  %31 = load ptr, ptr @PyExc_ValueError, align 8, !tbaa !15
  %32 = call ptr (ptr, ptr, ...) @PyErr_Format(ptr noundef %31, ptr noundef nonnull @.str.56, ptr noundef nonnull @.str.54, ptr noundef nonnull @.str.57) #7
  br label %46

convert_script_arg.exit:                          ; preds = %15
  %33 = call fastcc ptr @convert_code_arg(ptr noundef nonnull %16, ptr noundef nonnull @.str.54, ptr noundef nonnull @.str.53)
  store ptr %33, ptr %5, align 8, !tbaa !15
  %34 = icmp eq ptr %33, null
  br i1 %34, label %46, label %35

35:                                               ; preds = %convert_script_arg.exit.thread14, %convert_script_arg.exit
  %storemerge16 = phi ptr [ %16, %convert_script_arg.exit.thread14 ], [ %33, %convert_script_arg.exit ]
  call void @llvm.lifetime.start.p0(i64 8, ptr nonnull %8) #7
  store ptr null, ptr %8, align 8, !tbaa !15
  %36 = load ptr, ptr %6, align 8, !tbaa !15
  %37 = call fastcc i32 @_interp_exec(ptr noundef %13, ptr noundef nonnull %storemerge16, ptr noundef %36, ptr noundef %8)
  %38 = load ptr, ptr %5, align 8, !tbaa !15
  %39 = load i32, ptr %38, align 8, !tbaa !11
  %.not.i = icmp sgt i32 %39, -1
  br i1 %.not.i, label %40, label %Py_DECREF.exit

40:                                               ; preds = %35
  %41 = add nsw i32 %39, -1
  store i32 %41, ptr %38, align 8, !tbaa !11
  %42 = icmp eq i32 %41, 0
  br i1 %42, label %43, label %Py_DECREF.exit

43:                                               ; preds = %40
  call void @_Py_Dealloc(ptr noundef nonnull %38) #7
  br label %Py_DECREF.exit

Py_DECREF.exit:                                   ; preds = %35, %40, %43
  %44 = icmp slt i32 %37, 0
  %45 = load ptr, ptr %8, align 8
  %.3 = select i1 %44, ptr %45, ptr @_Py_NoneStruct
  call void @llvm.lifetime.end.p0(i64 8, ptr nonnull %8) #7
  br label %46

46:                                               ; preds = %Py_DECREF.exit.i, %10, %convert_script_arg.exit, %Py_DECREF.exit, %3
  %.0 = phi ptr [ null, %3 ], [ null, %10 ], [ %.3, %Py_DECREF.exit ], [ null, %convert_script_arg.exit ], [ null, %Py_DECREF.exit.i ]
  call void @llvm.lifetime.end.p0(i64 4, ptr nonnull %7) #7
  call void @llvm.lifetime.end.p0(i64 8, ptr nonnull %6) #7
  call void @llvm.lifetime.end.p0(i64 8, ptr nonnull %5) #7
  call void @llvm.lifetime.end.p0(i64 8, ptr nonnull %4) #7
  ret ptr %.0
}